target datalayout = "e-m:e-p270:32:32-p271:32:32-p272:64:64-i64:64-i128:128-f80:128-n8:16:32:64-S128"
target triple = "x86_64-pc-linux-gnu"

@.str.4 = private unnamed_addr constant [6 x i8] c"level\00", align 1
@.str.5 = private unnamed_addr constant [5 x i8] c"type\00", align 1
@.str.9 = private unnamed_addr constant [12 x i8] c"unix_rights\00", align 1
@rb_eTypeError = external global i64, align 8
@ancillary_level.rbimpl_id = internal global i64 0, align 8
@ancillary_type.rbimpl_id = internal global i64 0, align 8
@.str.56 = private unnamed_addr constant [35 x i8] c"SCM_RIGHTS ancillary data expected\00", align 1
@ancillary_unix_rights.rbimpl_id = internal global i64 0, align 8

; Function Attrs: inlinehint nounwind sspstrong willreturn memory(none) uwtable
define internal zeroext i1 @RB_FIXNUM_P(i64 noundef %0) #6 {
  %2 = alloca i64, align 8
  store i64 %0, ptr %2, align 8, !tbaa !6
  %3 = load i64, ptr %2, align 8, !tbaa !6
  %4 = and i64 %3, 1
  %5 = icmp ne i64 %4, 0
  ret i1 %5
}

; Function Attrs: inlinehint nounwind sspstrong willreturn memory(read) uwtable
define internal i64 @rb_intern_const(ptr noundef nonnull %0) #5 {
  %2 = alloca ptr, align 8
  %3 = alloca i64, align 8
  store ptr %0, ptr %2, align 8, !tbaa !20
  call void @llvm.lifetime.start.p0(i64 8, ptr %3) #21
  %4 = load ptr, ptr %2, align 8, !tbaa !20
  %5 = call i64 @strlen(ptr noundef %4) #22
  store i64 %5, ptr %3, align 8, !tbaa !6
  %6 = load ptr, ptr %2, align 8, !tbaa !20
  %7 = load i64, ptr %3, align 8, !tbaa !6
  %8 = call i64 @rb_intern2(ptr noundef %6, i64 noundef %7)
  call void @llvm.lifetime.end.p0(i64 8, ptr %3) #21
  ret i64 %8
}

; Function Attrs: inlinehint nounwind sspstrong uwtable
define internal i32 @rb_num2int_inline(i64 noundef %0) #3 {
  %2 = alloca i64, align 8
  %3 = alloca i64, align 8
  store i64 %0, ptr %2, align 8, !tbaa !6
  call void @llvm.lifetime.start.p0(i64 8, ptr %3) #21
  %4 = load i64, ptr %2, align 8, !tbaa !6
  %5 = call zeroext i1 @RB_FIXNUM_P(i64 noundef %4) #23
  br i1 %5, label %6, label %9

6:                                                ; preds = %1
  %7 = load i64, ptr %2, align 8, !tbaa !6
  %8 = call i64 @rb_fix2int(i64 noundef %7)
  store i64 %8, ptr %3, align 8, !tbaa !6
  br label %12

9:                                                ; preds = %1
  %10 = load i64, ptr %2, align 8, !tbaa !6
  %11 = call i64 @rb_num2int(i64 noundef %10)
  store i64 %11, ptr %3, align 8, !tbaa !6
  br label %12

12:                                               ; preds = %9, %6
  %13 = load i64, ptr %3, align 8, !tbaa !6
  %14 = trunc i64 %13 to i32
  call void @llvm.lifetime.end.p0(i64 8, ptr %3) #21
  ret i32 %14
}

; Function Attrs: inlinehint nounwind sspstrong memory(argmem: readwrite, inaccessiblemem: readwrite) uwtable
define internal i64 @rbimpl_intern_const(ptr noundef nonnull %0, ptr noundef nonnull %1) #9 {
  %3 = alloca ptr, align 8
  %4 = alloca ptr, align 8
  store ptr %0, ptr %3, align 8, !tbaa !18
  store ptr %1, ptr %4, align 8, !tbaa !20
  br label %5

5:                                                ; preds = %10, %2
  %6 = load ptr, ptr %3, align 8, !tbaa !18
  %7 = load i64, ptr %6, align 8, !tbaa !6
  %8 = icmp ne i64 %7, 0
  %9 = xor i1 %8, true
  br i1 %9, label %10, label %14

10:                                               ; preds = %5
  %11 = load ptr, ptr %4, align 8, !tbaa !20
  %12 = call i64 @rb_intern_const(ptr noundef %11) #22
  %13 = load ptr, ptr %3, align 8, !tbaa !18
  store i64 %12, ptr %13, align 8, !tbaa !6
  br label %5, !llvm.loop !76

14:                                               ; preds = %5
  %15 = load ptr, ptr %3, align 8, !tbaa !18
  %16 = load i64, ptr %15, align 8, !tbaa !6
  ret i64 %16
}

; Function Attrs: nounwind sspstrong uwtable
define internal i32 @ancillary_type(i64 noundef %0) #0 {
  %2 = alloca i64, align 8
  %3 = alloca i64, align 8
  %4 = alloca i64, align 8
  store i64 %0, ptr %2, align 8, !tbaa !6
  call void @llvm.lifetime.start.p0(i64 8, ptr %3) #21
  %5 = load i64, ptr %2, align 8, !tbaa !6
  %6 = call i64 @rbimpl_intern_const(ptr noundef @ancillary_type.rbimpl_id, ptr noundef @.str.5) #25
  store i64 %6, ptr %4, align 8, !tbaa !6
  %7 = load i64, ptr %4, align 8, !tbaa !6
  %8 = call i64 @rb_attr_get(i64 noundef %5, i64 noundef %7)
  store i64 %8, ptr %3, align 8, !tbaa !6
  %9 = load i64, ptr %3, align 8, !tbaa !6
  %10 = call i32 @rb_num2int_inline(i64 noundef %9)
  call void @llvm.lifetime.end.p0(i64 8, ptr %3) #21
  ret i32 %10
}

; Function Attrs: nounwind sspstrong uwtable
define internal i32 @ancillary_level(i64 noundef %0) #0 {
  %2 = alloca i64, align 8
  %3 = alloca i64, align 8
  %4 = alloca i64, align 8
  store i64 %0, ptr %2, align 8, !tbaa !6
  call void @llvm.lifetime.start.p0(i64 8, ptr %3) #21
  %5 = load i64, ptr %2, align 8, !tbaa !6
  %6 = call i64 @rbimpl_intern_const(ptr noundef @ancillary_level.rbimpl_id, ptr noundef @.str.4) #25
  store i64 %6, ptr %4, align 8, !tbaa !6
  %7 = load i64, ptr %4, align 8, !tbaa !6
  %8 = call i64 @rb_attr_get(i64 noundef %5, i64 noundef %7)
  store i64 %8, ptr %3, align 8, !tbaa !6
  %9 = load i64, ptr %3, align 8, !tbaa !6
  %10 = call i32 @rb_num2int_inline(i64 noundef %9)
  call void @llvm.lifetime.end.p0(i64 8, ptr %3) #21
  ret i32 %10
}

; Function Attrs: nounwind sspstrong uwtable
define internal i64 @ancillary_unix_rights(i64 noundef %0) #0 {
  %2 = alloca i64, align 8
  %3 = alloca i32, align 4
  %4 = alloca i32, align 4
  %5 = alloca i64, align 8
  store i64 %0, ptr %2, align 8, !tbaa !6
  call void @llvm.lifetime.start.p0(i64 4, ptr %3) #21
  call void @llvm.lifetime.start.p0(i64 4, ptr %4) #21
  %6 = load i64, ptr %2, align 8, !tbaa !6
  %7 = call i32 @ancillary_level(i64 noundef %6)
  store i32 %7, ptr %3, align 4, !tbaa !10
  %8 = load i64, ptr %2, align 8, !tbaa !6
  %9 = call i32 @ancillary_type(i64 noundef %8)
  store i32 %9, ptr %4, align 4, !tbaa !10
  %10 = load i32, ptr %3, align 4, !tbaa !10
  %11 = icmp ne i32 %10, 1
  br i1 %11, label %15, label %12

12:                                               ; preds = %1
  %13 = load i32, ptr %4, align 4, !tbaa !10
  %14 = icmp ne i32 %13, 1
  br i1 %14, label %15, label %17

15:                                               ; preds = %12, %1
  %16 = load i64, ptr @rb_eTypeError, align 8, !tbaa !6
  call void (i64, ptr, ...) @rb_raise(i64 noundef %16, ptr noundef @.str.56) #24
  unreachable

17:                                               ; preds = %12
  %18 = load i64, ptr %2, align 8, !tbaa !6
  %19 = call i64 @rbimpl_intern_const(ptr noundef @ancillary_unix_rights.rbimpl_id, ptr noundef @.str.9) #25
  store i64 %19, ptr %5, align 8, !tbaa !6
  %20 = load i64, ptr %5, align 8, !tbaa !6
  %21 = call i64 @rb_attr_get(i64 noundef %18, i64 noundef %20)
  call void @llvm.lifetime.end.p0(i64 4, ptr %4) #21
  call void @llvm.lifetime.end.p0(i64 4, ptr %3) #21
  ret i64 %21
}