; Function Attrs: nounwind sspstrong uwtable
define internal i64 @ancillary_unix_rights(i64 noundef %0) #0 {
  %.pr.i.i = load i64, ptr @ancillary_level.rbimpl_id, align 8, !tbaa !6
  %.not4.i.i = icmp eq i64 %.pr.i.i, 0
  br i1 %.not4.i.i, label %.lr.ph.i.i, label %rbimpl_intern_const.exit.i

.lr.ph.i.i:                                       ; preds = %1, %.lr.ph.i.i
  %2 = tail call i64 @rb_intern2(ptr noundef nonnull @.str.4, i64 noundef 5) #10
  store i64 %2, ptr @ancillary_level.rbimpl_id, align 8, !tbaa !6
  %.not.i.i = icmp eq i64 %2, 0
  br i1 %.not.i.i, label %.lr.ph.i.i, label %rbimpl_intern_const.exit.i, !llvm.loop !17

rbimpl_intern_const.exit.i:                       ; preds = %.lr.ph.i.i, %1
  %.lcssa.i.i = phi i64 [ %.pr.i.i, %1 ], [ %2, %.lr.ph.i.i ]
  %3 = tail call i64 @rb_attr_get(i64 noundef %0, i64 noundef %.lcssa.i.i) #10
  %4 = and i64 %3, 1
  %.not.i3.i = icmp eq i64 %4, 0
  br i1 %.not.i3.i, label %7, label %5

5:                                                ; preds = %rbimpl_intern_const.exit.i
  %6 = tail call i64 @rb_fix2int(i64 noundef %3) #10
  br label %ancillary_level.exit

7:                                                ; preds = %rbimpl_intern_const.exit.i
  %8 = tail call i64 @rb_num2int(i64 noundef %3) #10
  br label %ancillary_level.exit

ancillary_level.exit:                             ; preds = %5, %7
  %.0.i.i = phi i64 [ %6, %5 ], [ %8, %7 ]
  %.pr.i.i7 = load i64, ptr @ancillary_type.rbimpl_id, align 8, !tbaa !6
  %.not4.i.i8 = icmp eq i64 %.pr.i.i7, 0
  br i1 %.not4.i.i8, label %.lr.ph.i.i13, label %rbimpl_intern_const.exit.i9

.lr.ph.i.i13:                                     ; preds = %ancillary_level.exit, %.lr.ph.i.i13
  %9 = tail call i64 @rb_intern2(ptr noundef nonnull @.str.5, i64 noundef 4) #10
  store i64 %9, ptr @ancillary_type.rbimpl_id, align 8, !tbaa !6
  %.not.i.i14 = icmp eq i64 %9, 0
  br i1 %.not.i.i14, label %.lr.ph.i.i13, label %rbimpl_intern_const.exit.i9, !llvm.loop !17

rbimpl_intern_const.exit.i9:                      ; preds = %.lr.ph.i.i13, %ancillary_level.exit
  %.lcssa.i.i10 = phi i64 [ %.pr.i.i7, %ancillary_level.exit ], [ %9, %.lr.ph.i.i13 ]
  %10 = tail call i64 @rb_attr_get(i64 noundef %0, i64 noundef %.lcssa.i.i10) #10
  %11 = and i64 %10, 1
  %.not.i3.i11 = icmp eq i64 %11, 0
  br i1 %.not.i3.i11, label %14, label %12

12:                                               ; preds = %rbimpl_intern_const.exit.i9
  %13 = tail call i64 @rb_fix2int(i64 noundef %10) #10
  br label %ancillary_type.exit

14:                                               ; preds = %rbimpl_intern_const.exit.i9
  %15 = tail call i64 @rb_num2int(i64 noundef %10) #10
  br label %ancillary_type.exit

ancillary_type.exit:                              ; preds = %12, %14
  %.0.i.i12 = phi i64 [ %13, %12 ], [ %15, %14 ]
  %16 = and i64 %.0.i.i, 4294967295
  %17 = icmp ne i64 %16, 1
  %18 = and i64 %.0.i.i12, 4294967295
  %19 = icmp ne i64 %18, 1
  %or.cond = select i1 %17, i1 true, i1 %19
  br i1 %or.cond, label %20, label %22

20:                                               ; preds = %ancillary_type.exit
  %21 = load i64, ptr @rb_eTypeError, align 8, !tbaa !6
  tail call void (i64, ptr, ...) @rb_raise(i64 noundef %21, ptr noundef nonnull @.str.56) #12
  unreachable

22:                                               ; preds = %ancillary_type.exit
  %.pr.i = load i64, ptr @ancillary_unix_rights.rbimpl_id, align 8, !tbaa !6
  %.not4.i = icmp eq i64 %.pr.i, 0
  br i1 %.not4.i, label %.lr.ph.i, label %rbimpl_intern_const.exit

.lr.ph.i:                                         ; preds = %22, %.lr.ph.i
  %23 = tail call i64 @rb_intern2(ptr noundef nonnull @.str.9, i64 noundef 11) #10
  store i64 %23, ptr @ancillary_unix_rights.rbimpl_id, align 8, !tbaa !6
  %.not.i = icmp eq i64 %23, 0
  br i1 %.not.i, label %.lr.ph.i, label %rbimpl_intern_const.exit, !llvm.loop !17

rbimpl_intern_const.exit:                         ; preds = %.lr.ph.i, %22
  %.lcssa.i = phi i64 [ %.pr.i, %22 ], [ %23, %.lr.ph.i ]
  %24 = tail call i64 @rb_attr_get(i64 noundef %0, i64 noundef %.lcssa.i) #10
  ret i64 %24
}